target datalayout = "e-m:e-p270:32:32-p271:32:32-p272:64:64-i64:64-i128:128-f80:128-n8:16:32:64-S128"
target triple = "x86_64-pc-linux-gnu"

%struct.GCRef = type { i64 }
%struct.lua_State = type { %struct.GCRef, i8, i8, i8, i8, %struct.MRef, %struct.GCRef, ptr, ptr, %struct.MRef, %struct.MRef, %struct.GCRef, %struct.GCRef, ptr, i32 }
%struct.MRef = type { i64 }
%union.TValue = type { i64 }
%struct.GCfuncC = type { %struct.GCRef, i8, i8, i8, i8, %struct.GCRef, %struct.GCRef, %struct.MRef, ptr, [1 x %union.TValue] }

@lj_err_allmsg = hidden global ptr @.str, align 8
@lj_obj_itypename = external hidden constant [14 x ptr], align 16
@lj_obj_typename = external hidden constant [12 x ptr], align 16

; Function Attrs: noinline noreturn nounwind uwtable
define hidden void @lj_err_argtype(ptr noundef %0, i32 noundef %1, ptr noundef %2) #6 {
  %4 = alloca ptr, align 8
  %5 = alloca i32, align 4
  %6 = alloca ptr, align 8
  %7 = alloca ptr, align 8
  %8 = alloca ptr, align 8
  %9 = alloca ptr, align 8
  %10 = alloca i32, align 4
  %11 = alloca ptr, align 8
  store ptr %0, ptr %4, align 8, !tbaa !18
  store i32 %1, ptr %5, align 4, !tbaa !4
  store ptr %2, ptr %6, align 8, !tbaa !50
  call void @llvm.lifetime.start.p0(i64 8, ptr %7) #15
  call void @llvm.lifetime.start.p0(i64 8, ptr %8) #15
  %12 = load i32, ptr %5, align 4, !tbaa !4
  %13 = icmp sle i32 %12, -10000
  br i1 %13, label %14, label %68

14:                                               ; preds = %3
  %15 = load i32, ptr %5, align 4, !tbaa !4
  %16 = icmp sge i32 %15, -10002
  br i1 %16, label %17, label %19

17:                                               ; preds = %14
  %18 = load ptr, ptr getelementptr inbounds nuw ([14 x ptr], ptr @lj_obj_itypename, i64 0, i64 11), align 8, !tbaa !50
  store ptr %18, ptr %7, align 8, !tbaa !50
  br label %67

19:                                               ; preds = %14
  call void @llvm.lifetime.start.p0(i64 8, ptr %9) #15
  %20 = load ptr, ptr %4, align 8, !tbaa !18
  %21 = getelementptr inbounds nuw %struct.lua_State, ptr %20, i32 0, i32 7
  %22 = load ptr, ptr %21, align 8, !tbaa !24
  %23 = getelementptr inbounds %union.TValue, ptr %22, i64 -2
  %24 = getelementptr inbounds nuw %struct.GCRef, ptr %23, i32 0, i32 0
  %25 = load i64, ptr %24, align 8, !tbaa !28
  %26 = and i64 %25, 140737488355327
  %27 = inttoptr i64 %26 to ptr
  store ptr %27, ptr %9, align 8, !tbaa !84
  call void @llvm.lifetime.start.p0(i64 4, ptr %10) #15
  %28 = load i32, ptr %5, align 4, !tbaa !4
  %29 = sub nsw i32 -10002, %28
  store i32 %29, ptr %10, align 4, !tbaa !4
  %30 = load i32, ptr %10, align 4, !tbaa !4
  %31 = load ptr, ptr %9, align 8, !tbaa !84
  %32 = getelementptr inbounds nuw %struct.GCfuncC, ptr %31, i32 0, i32 4
  %33 = load i8, ptr %32, align 1, !tbaa !28
  %34 = zext i8 %33 to i32
  %35 = icmp sle i32 %30, %34
  br i1 %35, label %36, label %64

36:                                               ; preds = %19
  %37 = load ptr, ptr %9, align 8, !tbaa !84
  %38 = getelementptr inbounds nuw %struct.GCfuncC, ptr %37, i32 0, i32 9
  %39 = load i32, ptr %10, align 4, !tbaa !4
  %40 = sub nsw i32 %39, 1
  %41 = sext i32 %40 to i64
  %42 = getelementptr inbounds [1 x %union.TValue], ptr %38, i64 0, i64 %41
  %43 = load i64, ptr %42, align 8, !tbaa !28
  %44 = ashr i64 %43, 47
  %45 = trunc i64 %44 to i32
  %46 = icmp ule i32 %45, -14
  br i1 %46, label %47, label %48

47:                                               ; preds = %36
  br label %59

48:                                               ; preds = %36
  %49 = load ptr, ptr %9, align 8, !tbaa !84
  %50 = getelementptr inbounds nuw %struct.GCfuncC, ptr %49, i32 0, i32 9
  %51 = load i32, ptr %10, align 4, !tbaa !4
  %52 = sub nsw i32 %51, 1
  %53 = sext i32 %52 to i64
  %54 = getelementptr inbounds [1 x %union.TValue], ptr %50, i64 0, i64 %53
  %55 = load i64, ptr %54, align 8, !tbaa !28
  %56 = ashr i64 %55, 47
  %57 = trunc i64 %56 to i32
  %58 = xor i32 %57, -1
  br label %59

59:                                               ; preds = %48, %47
  %60 = phi i32 [ 13, %47 ], [ %58, %48 ]
  %61 = zext i32 %60 to i64
  %62 = getelementptr inbounds nuw [14 x ptr], ptr @lj_obj_itypename, i64 0, i64 %61
  %63 = load ptr, ptr %62, align 8, !tbaa !50
  store ptr %63, ptr %7, align 8, !tbaa !50
  br label %66

64:                                               ; preds = %19
  %65 = load ptr, ptr @lj_obj_typename, align 16, !tbaa !50
  store ptr %65, ptr %7, align 8, !tbaa !50
  br label %66

66:                                               ; preds = %64, %59
  call void @llvm.lifetime.end.p0(i64 4, ptr %10) #15
  call void @llvm.lifetime.end.p0(i64 8, ptr %9) #15
  br label %67

67:                                               ; preds = %66, %17
  br label %115

68:                                               ; preds = %3
  call void @llvm.lifetime.start.p0(i64 8, ptr %11) #15
  %69 = load i32, ptr %5, align 4, !tbaa !4
  %70 = icmp slt i32 %69, 0
  br i1 %70, label %71, label %78

71:                                               ; preds = %68
  %72 = load ptr, ptr %4, align 8, !tbaa !18
  %73 = getelementptr inbounds nuw %struct.lua_State, ptr %72, i32 0, i32 8
  %74 = load ptr, ptr %73, align 8, !tbaa !20
  %75 = load i32, ptr %5, align 4, !tbaa !4
  %76 = sext i32 %75 to i64
  %77 = getelementptr inbounds %union.TValue, ptr %74, i64 %76
  br label %86

78:                                               ; preds = %68
  %79 = load ptr, ptr %4, align 8, !tbaa !18
  %80 = getelementptr inbounds nuw %struct.lua_State, ptr %79, i32 0, i32 7
  %81 = load ptr, ptr %80, align 8, !tbaa !24
  %82 = load i32, ptr %5, align 4, !tbaa !4
  %83 = sext i32 %82 to i64
  %84 = getelementptr inbounds %union.TValue, ptr %81, i64 %83
  %85 = getelementptr inbounds %union.TValue, ptr %84, i64 -1
  br label %86

86:                                               ; preds = %78, %71
  %87 = phi ptr [ %77, %71 ], [ %85, %78 ]
  store ptr %87, ptr %11, align 8, !tbaa !25
  %88 = load ptr, ptr %11, align 8, !tbaa !25
  %89 = load ptr, ptr %4, align 8, !tbaa !18
  %90 = getelementptr inbounds nuw %struct.lua_State, ptr %89, i32 0, i32 8
  %91 = load ptr, ptr %90, align 8, !tbaa !20
  %92 = icmp ult ptr %88, %91
  br i1 %92, label %93, label %111

93:                                               ; preds = %86
  %94 = load ptr, ptr %11, align 8, !tbaa !25
  %95 = load i64, ptr %94, align 8, !tbaa !28
  %96 = ashr i64 %95, 47
  %97 = trunc i64 %96 to i32
  %98 = icmp ule i32 %97, -14
  br i1 %98, label %99, label %100

99:                                               ; preds = %93
  br label %106

100:                                              ; preds = %93
  %101 = load ptr, ptr %11, align 8, !tbaa !25
  %102 = load i64, ptr %101, align 8, !tbaa !28
  %103 = ashr i64 %102, 47
  %104 = trunc i64 %103 to i32
  %105 = xor i32 %104, -1
  br label %106

106:                                              ; preds = %100, %99
  %107 = phi i32 [ 13, %99 ], [ %105, %100 ]
  %108 = zext i32 %107 to i64
  %109 = getelementptr inbounds nuw [14 x ptr], ptr @lj_obj_itypename, i64 0, i64 %108
  %110 = load ptr, ptr %109, align 8, !tbaa !50
  br label %113

111:                                              ; preds = %86
  %112 = load ptr, ptr @lj_obj_typename, align 16, !tbaa !50
  br label %113

113:                                              ; preds = %111, %106
  %114 = phi ptr [ %110, %106 ], [ %112, %111 ]
  store ptr %114, ptr %7, align 8, !tbaa !50
  call void @llvm.lifetime.end.p0(i64 8, ptr %11) #15
  br label %115

115:                                              ; preds = %113, %67
  %116 = load ptr, ptr %4, align 8, !tbaa !18
  %117 = load ptr, ptr @lj_err_allmsg, align 8, !tbaa !50
  %118 = getelementptr inbounds i8, ptr %117, i64 517
  %119 = load ptr, ptr %6, align 8, !tbaa !50
  %120 = load ptr, ptr %7, align 8, !tbaa !50
  %121 = call ptr (ptr, ptr, ...) @lj_strfmt_pushf(ptr noundef %116, ptr noundef %118, ptr noundef %119, ptr noundef %120)
  store ptr %121, ptr %8, align 8, !tbaa !50
  %122 = load ptr, ptr %4, align 8, !tbaa !18
  %123 = load i32, ptr %5, align 4, !tbaa !4
  %124 = load ptr, ptr %8, align 8, !tbaa !50
  call void @err_argmsg(ptr noundef %122, i32 noundef %123, ptr noundef %124) #18
  unreachable
}