; Function Attrs: noinline noreturn nounwind uwtable
define hidden void @lj_err_argtype(ptr noundef %0, i32 noundef %1, ptr noundef %2) local_unnamed_addr #5 {
  %4 = icmp slt i32 %1, -9999
  br i1 %4, label %5, label %23

5:                                                ; preds = %3
  %6 = icmp samesign ugt i32 %1, -10003
  br i1 %6, label %44, label %7

7:                                                ; preds = %5
  %8 = getelementptr inbounds nuw i8, ptr %0, i64 32
  %9 = load ptr, ptr %8, align 8, !tbaa !15
  %10 = getelementptr inbounds i8, ptr %9, i64 -16
  %11 = load i64, ptr %10, align 8, !tbaa !18
  %12 = and i64 %11, 140737488355327
  %13 = inttoptr i64 %12 to ptr
  %14 = sub nuw nsw i32 -10002, %1
  %15 = getelementptr inbounds nuw i8, ptr %13, i64 11
  %16 = load i8, ptr %15, align 1, !tbaa !18
  %17 = zext i8 %16 to i32
  %.not = icmp samesign ugt i32 %14, %17
  br i1 %.not, label %44, label %18

18:                                               ; preds = %7
  %19 = getelementptr inbounds nuw i8, ptr %13, i64 48
  %20 = sub nuw nsw i32 -10003, %1
  %21 = zext nneg i32 %20 to i64
  %22 = getelementptr inbounds nuw [1 x %union.TValue], ptr %19, i64 0, i64 %21
  br label %.sink.split

23:                                               ; preds = %3
  %24 = icmp slt i32 %1, 0
  br i1 %24, label %25, label %30

25:                                               ; preds = %23
  %26 = getelementptr inbounds nuw i8, ptr %0, i64 40
  %27 = load ptr, ptr %26, align 8, !tbaa !20
  %28 = sext i32 %1 to i64
  %29 = getelementptr inbounds %union.TValue, ptr %27, i64 %28
  br label %36

30:                                               ; preds = %23
  %31 = getelementptr inbounds nuw i8, ptr %0, i64 32
  %32 = load ptr, ptr %31, align 8, !tbaa !15
  %33 = zext nneg i32 %1 to i64
  %34 = getelementptr inbounds nuw %union.TValue, ptr %32, i64 %33
  %35 = getelementptr inbounds i8, ptr %34, i64 -8
  %.phi.trans.insert = getelementptr inbounds nuw i8, ptr %0, i64 40
  %.pre = load ptr, ptr %.phi.trans.insert, align 8, !tbaa !20
  br label %36

36:                                               ; preds = %30, %25
  %37 = phi ptr [ %27, %25 ], [ %.pre, %30 ]
  %38 = phi ptr [ %29, %25 ], [ %35, %30 ]
  %39 = icmp ult ptr %38, %37
  br i1 %39, label %.sink.split, label %44

.sink.split:                                      ; preds = %36, %18
  %.sink31 = phi ptr [ %22, %18 ], [ %38, %36 ]
  %40 = load i64, ptr %.sink31, align 8, !tbaa !18
  %41 = ashr i64 %40, 47
  %42 = tail call i64 @llvm.umax.i64(i64 %41, i64 -14)
  %spec.select29 = xor i64 %42, -1
  %43 = getelementptr inbounds nuw [14 x ptr], ptr @lj_obj_itypename, i64 0, i64 %spec.select29
  br label %44

44:                                               ; preds = %.sink.split, %36, %7, %5
  %.1.in = phi ptr [ getelementptr inbounds nuw (i8, ptr @lj_obj_itypename, i64 88), %5 ], [ @lj_obj_typename, %7 ], [ @lj_obj_typename, %36 ], [ %43, %.sink.split ]
  %.1 = load ptr, ptr %.1.in, align 8, !tbaa !36
  %45 = load ptr, ptr @lj_err_allmsg, align 8, !tbaa !36
  %46 = getelementptr inbounds nuw i8, ptr %45, i64 517
  %47 = tail call ptr (ptr, ptr, ...) @lj_strfmt_pushf(ptr noundef %0, ptr noundef nonnull %46, ptr noundef %2, ptr noundef %.1) #15
  tail call fastcc void @err_argmsg(ptr noundef %0, i32 noundef %1, ptr noundef %47) #19
  unreachable
}